target datalayout = "e-m:e-p270:32:32-p271:32:32-p272:64:64-i64:64-i128:128-f80:128-n8:16:32:64-S128"
target triple = "x86_64-pc-linux-gnu"

%"class.sat::literal" = type { i32 }
%"class.pb::card" = type { %"class.pb::constraint", [0 x %"class.sat::literal"] }
%"class.pb::constraint" = type { ptr, i32, i8, %"class.sat::literal", %"class.sat::literal", i32, i32, i32, i64, i8, i32, i8, i32 }
%class.vector = type { ptr }

@_ZN3sat12null_literalE = linkonce_odr hidden constant %"class.sat::literal" { i32 -2 }, comdat, align 4

; Function Attrs: mustprogress nounwind uwtable
define linkonce_odr hidden noundef i64 @_ZN3sat15constraint_base8ext_sizeEv() #6 comdat align 2 {
  ret i64 8
}

; Function Attrs: mustprogress uwtable
define linkonce_odr hidden noundef i64 @_ZN3sat15constraint_base8obj_sizeEm(i64 noundef %0) #4 comdat align 2 {
  %2 = alloca i64, align 8
  store i64 %0, ptr %2, align 8, !tbaa !26
  %3 = call noundef i64 @_ZN3sat15constraint_base8ext_sizeEv()
  %4 = load i64, ptr %2, align 8, !tbaa !26
  %5 = add i64 %3, %4
  ret i64 %5
}

; Function Attrs: mustprogress nounwind uwtable
define linkonce_odr hidden noundef nonnull align 4 dereferenceable(4) ptr @_ZNK6vectorIN3sat7literalELb0EjEixEj(ptr noundef nonnull align 8 dereferenceable(8) %0, i32 noundef %1) #6 comdat align 2 {
  %3 = alloca ptr, align 8
  %4 = alloca i32, align 4
  store ptr %0, ptr %3, align 8, !tbaa !17
  store i32 %1, ptr %4, align 4, !tbaa !8
  %5 = load ptr, ptr %3, align 8
  %6 = getelementptr inbounds nuw %class.vector, ptr %5, i32 0, i32 0
  %7 = load ptr, ptr %6, align 8, !tbaa !19
  %8 = load i32, ptr %4, align 4, !tbaa !8
  %9 = zext i32 %8 to i64
  %10 = getelementptr inbounds nuw %"class.sat::literal", ptr %7, i64 %9
  ret ptr %10
}

; Function Attrs: mustprogress nounwind uwtable
define linkonce_odr hidden void @_ZN2pb10constraintD2Ev(ptr noundef nonnull align 8 dereferenceable(64) %0) unnamed_addr #6 comdat align 2 {
  %2 = alloca ptr, align 8
  store ptr %0, ptr %2, align 8, !tbaa !22
  ret void
}

; Function Attrs: mustprogress nounwind uwtable
define linkonce_odr hidden noundef i32 @_ZNK2pb10constraint4sizeEv(ptr noundef nonnull align 8 dereferenceable(64) %0) #6 comdat align 2 {
  %2 = alloca ptr, align 8
  store ptr %0, ptr %2, align 8, !tbaa !22
  %3 = load ptr, ptr %2, align 8
  %4 = getelementptr inbounds nuw %"class.pb::constraint", ptr %3, i32 0, i32 7
  %5 = load i32, ptr %4, align 8, !tbaa !35
  ret i32 %5
}

; Function Attrs: mustprogress nounwind uwtable
define linkonce_odr hidden void @_ZN2pb10constraintC2ENS_5tag_tEjN3sat7literalEjmj(ptr noundef nonnull align 8 dereferenceable(64) %0, i32 noundef %1, i32 noundef %2, i32 %3, i32 noundef %4, i64 noundef %5, i32 noundef %6) unnamed_addr #6 comdat align 2 {
  %8 = alloca %"class.sat::literal", align 4
  %9 = alloca ptr, align 8
  %10 = alloca i32, align 4
  %11 = alloca i32, align 4
  %12 = alloca i32, align 4
  %13 = alloca i64, align 8
  %14 = alloca i32, align 4
  %15 = getelementptr inbounds nuw %"class.sat::literal", ptr %8, i32 0, i32 0
  store i32 %3, ptr %15, align 4
  store ptr %0, ptr %9, align 8, !tbaa !22
  store i32 %1, ptr %10, align 4, !tbaa !24
  store i32 %2, ptr %11, align 4, !tbaa !8
  store i32 %4, ptr %12, align 4, !tbaa !8
  store i64 %5, ptr %13, align 8, !tbaa !26
  store i32 %6, ptr %14, align 4, !tbaa !8
  %16 = load ptr, ptr %9, align 8
  store ptr getelementptr inbounds inrange(-16, 168) ({ [23 x ptr] }, ptr @_ZTVN2pb10constraintE, i32 0, i32 0, i32 2), ptr %16, align 8, !tbaa !13
  %17 = getelementptr inbounds nuw %"class.pb::constraint", ptr %16, i32 0, i32 1
  %18 = load i32, ptr %10, align 4, !tbaa !24
  store i32 %18, ptr %17, align 8, !tbaa !28
  %19 = getelementptr inbounds nuw %"class.pb::constraint", ptr %16, i32 0, i32 2
  store i8 0, ptr %19, align 4, !tbaa !32
  %20 = getelementptr inbounds nuw %"class.pb::constraint", ptr %16, i32 0, i32 3
  call void @llvm.memcpy.p0.p0.i64(ptr align 8 %20, ptr align 4 %8, i64 4, i1 false), !tbaa.struct !12
  %21 = getelementptr inbounds nuw %"class.pb::constraint", ptr %16, i32 0, i32 4
  call void @llvm.memcpy.p0.p0.i64(ptr align 4 %21, ptr align 4 @_ZN3sat12null_literalE, i64 4, i1 false), !tbaa.struct !12
  %22 = getelementptr inbounds nuw %"class.pb::constraint", ptr %16, i32 0, i32 5
  store i32 0, ptr %22, align 8, !tbaa !33
  %23 = getelementptr inbounds nuw %"class.pb::constraint", ptr %16, i32 0, i32 6
  store i32 0, ptr %23, align 4, !tbaa !34
  %24 = getelementptr inbounds nuw %"class.pb::constraint", ptr %16, i32 0, i32 7
  %25 = load i32, ptr %12, align 4, !tbaa !8
  store i32 %25, ptr %24, align 8, !tbaa !35
  %26 = getelementptr inbounds nuw %"class.pb::constraint", ptr %16, i32 0, i32 8
  %27 = load i64, ptr %13, align 8, !tbaa !26
  store i64 %27, ptr %26, align 8, !tbaa !36
  %28 = getelementptr inbounds nuw %"class.pb::constraint", ptr %16, i32 0, i32 9
  store i8 0, ptr %28, align 8, !tbaa !37
  %29 = getelementptr inbounds nuw %"class.pb::constraint", ptr %16, i32 0, i32 10
  %30 = load i32, ptr %11, align 4, !tbaa !8
  store i32 %30, ptr %29, align 4, !tbaa !38
  %31 = getelementptr inbounds nuw %"class.pb::constraint", ptr %16, i32 0, i32 11
  store i8 0, ptr %31, align 8, !tbaa !39
  %32 = getelementptr inbounds nuw %"class.pb::constraint", ptr %16, i32 0, i32 12
  %33 = load i32, ptr %14, align 4, !tbaa !8
  store i32 %33, ptr %32, align 4, !tbaa !40
  ret void
}

; Function Attrs: mustprogress uwtable
define linkonce_odr hidden noundef i64 @_ZN2pb4card12get_obj_sizeEj(i32 noundef %0) #4 comdat align 2 {
  %2 = alloca i32, align 4
  store i32 %0, ptr %2, align 4, !tbaa !8
  %3 = load i32, ptr %2, align 4, !tbaa !8
  %4 = zext i32 %3 to i64
  %5 = mul i64 %4, 4
  %6 = add i64 64, %5
  %7 = call noundef i64 @_ZN3sat15constraint_base8obj_sizeEm(i64 noundef %6)
  ret i64 %7
}

; Function Attrs: mustprogress nounwind uwtable
define linkonce_odr hidden noundef i32 @_ZNK6vectorIN3sat7literalELb0EjE4sizeEv(ptr noundef nonnull align 8 dereferenceable(8) %0) #6 comdat align 2 {
  %2 = alloca i32, align 4
  %3 = alloca ptr, align 8
  store ptr %0, ptr %3, align 8, !tbaa !17
  %4 = load ptr, ptr %3, align 8
  %5 = getelementptr inbounds nuw %class.vector, ptr %4, i32 0, i32 0
  %6 = load ptr, ptr %5, align 8, !tbaa !19
  %7 = icmp eq ptr %6, null
  br i1 %7, label %8, label %9

8:                                                ; preds = %1
  store i32 0, ptr %2, align 4
  br label %14

9:                                                ; preds = %1
  %10 = getelementptr inbounds nuw %class.vector, ptr %4, i32 0, i32 0
  %11 = load ptr, ptr %10, align 8, !tbaa !19
  %12 = getelementptr inbounds i32, ptr %11, i64 -1
  %13 = load i32, ptr %12, align 4, !tbaa !8
  store i32 %13, ptr %2, align 4
  br label %14

14:                                               ; preds = %9, %8
  %15 = load i32, ptr %2, align 4
  ret i32 %15
}

; Function Attrs: mustprogress uwtable
define hidden void @_ZN2pb4cardC2EjN3sat7literalERK7svectorIS2_jEj(ptr noundef nonnull align 8 dereferenceable(64) %0, i32 noundef %1, i32 %2, ptr noundef nonnull align 8 dereferenceable(8) %3, i32 noundef %4) unnamed_addr #4 align 2 personality ptr @__gxx_personality_v0 {
  %6 = alloca %"class.sat::literal", align 4
  %7 = alloca ptr, align 8
  %8 = alloca i32, align 4
  %9 = alloca ptr, align 8
  %10 = alloca i32, align 4
  %11 = alloca %"class.sat::literal", align 4
  %12 = alloca i32, align 4
  %13 = alloca ptr, align 8
  %14 = alloca i32, align 4
  %15 = getelementptr inbounds nuw %"class.sat::literal", ptr %6, i32 0, i32 0
  store i32 %2, ptr %15, align 4
  store ptr %0, ptr %7, align 8, !tbaa !3
  store i32 %1, ptr %8, align 4, !tbaa !8
  store ptr %3, ptr %9, align 8, !tbaa !10
  store i32 %4, ptr %10, align 4, !tbaa !8
  %16 = load ptr, ptr %7, align 8
  %17 = load i32, ptr %8, align 4, !tbaa !8
  call void @llvm.memcpy.p0.p0.i64(ptr align 4 %11, ptr align 4 %6, i64 4, i1 false), !tbaa.struct !12
  %18 = load ptr, ptr %9, align 8, !tbaa !10
  %19 = call noundef i32 @_ZNK6vectorIN3sat7literalELb0EjE4sizeEv(ptr noundef nonnull align 8 dereferenceable(8) %18)
  %20 = load ptr, ptr %9, align 8, !tbaa !10
  %21 = call noundef i32 @_ZNK6vectorIN3sat7literalELb0EjE4sizeEv(ptr noundef nonnull align 8 dereferenceable(8) %20)
  %22 = call noundef i64 @_ZN2pb4card12get_obj_sizeEj(i32 noundef %21)
  %23 = load i32, ptr %10, align 4, !tbaa !8
  %24 = getelementptr inbounds nuw %"class.sat::literal", ptr %11, i32 0, i32 0
  %25 = load i32, ptr %24, align 4
  call void @_ZN2pb10constraintC2ENS_5tag_tEjN3sat7literalEjmj(ptr noundef nonnull align 8 dereferenceable(64) %16, i32 noundef 0, i32 noundef %17, i32 %25, i32 noundef %19, i64 noundef %22, i32 noundef %23)
  store ptr getelementptr inbounds inrange(-16, 168) ({ [23 x ptr] }, ptr @_ZTVN2pb4cardE, i32 0, i32 0, i32 2), ptr %16, align 8, !tbaa !13
  call void @llvm.lifetime.start.p0(i64 4, ptr %12) #3
  store i32 0, ptr %12, align 4, !tbaa !8
  br label %26

26:                                               ; preds = %45, %5
  %27 = load i32, ptr %12, align 4, !tbaa !8
  %28 = invoke noundef i32 @_ZNK2pb10constraint4sizeEv(ptr noundef nonnull align 8 dereferenceable(64) %16)
          to label %29 unwind label %32

29:                                               ; preds = %26
  %30 = icmp ult i32 %27, %28
  br i1 %30, label %36, label %31

31:                                               ; preds = %29
  call void @llvm.lifetime.end.p0(i64 4, ptr %12) #3
  br label %48

32:                                               ; preds = %36, %26
  %33 = landingpad { ptr, i32 }
          cleanup
  %34 = extractvalue { ptr, i32 } %33, 0
  store ptr %34, ptr %13, align 8
  %35 = extractvalue { ptr, i32 } %33, 1
  store i32 %35, ptr %14, align 4
  call void @llvm.lifetime.end.p0(i64 4, ptr %12) #3
  call void @_ZN2pb10constraintD2Ev(ptr noundef nonnull align 8 dereferenceable(64) %16) #3
  br label %49

36:                                               ; preds = %29
  %37 = load ptr, ptr %9, align 8, !tbaa !10
  %38 = load i32, ptr %12, align 4, !tbaa !8
  %39 = invoke noundef nonnull align 4 dereferenceable(4) ptr @_ZNK6vectorIN3sat7literalELb0EjEixEj(ptr noundef nonnull align 8 dereferenceable(8) %37, i32 noundef %38)
          to label %40 unwind label %32

40:                                               ; preds = %36
  %41 = getelementptr inbounds nuw %"class.pb::card", ptr %16, i32 0, i32 1
  %42 = load i32, ptr %12, align 4, !tbaa !8
  %43 = zext i32 %42 to i64
  %44 = getelementptr inbounds nuw [0 x %"class.sat::literal"], ptr %41, i64 0, i64 %43
  call void @llvm.memcpy.p0.p0.i64(ptr align 4 %44, ptr align 4 %39, i64 4, i1 false), !tbaa.struct !12
  br label %45

45:                                               ; preds = %40
  %46 = load i32, ptr %12, align 4, !tbaa !8
  %47 = add i32 %46, 1
  store i32 %47, ptr %12, align 4, !tbaa !8
  br label %26, !llvm.loop !15

48:                                               ; preds = %31
  ret void

49:                                               ; preds = %32
  %50 = load ptr, ptr %13, align 8
  %51 = load i32, ptr %14, align 4
  %52 = insertvalue { ptr, i32 } poison, ptr %50, 0
  %53 = insertvalue { ptr, i32 } %52, i32 %51, 1
  resume { ptr, i32 } %53
}