; Function Attrs: mustprogress nofree norecurse nosync nounwind memory(read, argmem: readwrite, inaccessiblemem: none) uwtable
define hidden void @_ZN2pb4cardC2EjN3sat7literalERK7svectorIS2_jEj(ptr noundef nonnull writeonly align 8 captures(none) dereferenceable(64) initializes((0, 13), (16, 36), (40, 49), (52, 57), (60, 64)) %0, i32 noundef %1, i32 %2, ptr noundef nonnull readonly align 8 captures(none) dereferenceable(8) %3, i32 noundef %4) unnamed_addr #3 align 2 personality ptr @__gxx_personality_v0 {
  %6 = load ptr, ptr %3, align 8, !tbaa !3
  %7 = icmp eq ptr %6, null
  br i1 %7, label %_ZNK6vectorIN3sat7literalELb0EjE4sizeEv.exit11, label %8

8:                                                ; preds = %5
  %9 = getelementptr inbounds i8, ptr %6, i64 -4
  %10 = load i32, ptr %9, align 4, !tbaa !9
  br label %_ZNK6vectorIN3sat7literalELb0EjE4sizeEv.exit11

_ZNK6vectorIN3sat7literalELb0EjE4sizeEv.exit11:   ; preds = %5, %8
  %.0.i10 = phi i32 [ %10, %8 ], [ 0, %5 ]
  %11 = zext i32 %.0.i10 to i64
  %12 = shl nuw nsw i64 %11, 2
  %13 = add nuw nsw i64 %12, 72
  %14 = getelementptr inbounds nuw i8, ptr %0, i64 8
  store i32 0, ptr %14, align 8, !tbaa !11
  %15 = getelementptr inbounds nuw i8, ptr %0, i64 12
  store i8 0, ptr %15, align 4, !tbaa !17
  %16 = getelementptr inbounds nuw i8, ptr %0, i64 16
  store i32 %2, ptr %16, align 8, !tbaa !9
  %17 = getelementptr inbounds nuw i8, ptr %0, i64 20
  store i32 -2, ptr %17, align 4, !tbaa !9
  %18 = getelementptr inbounds nuw i8, ptr %0, i64 24
  store i32 0, ptr %18, align 8, !tbaa !18
  %19 = getelementptr inbounds nuw i8, ptr %0, i64 28
  store i32 0, ptr %19, align 4, !tbaa !19
  %20 = getelementptr inbounds nuw i8, ptr %0, i64 32
  store i32 %.0.i10, ptr %20, align 8, !tbaa !20
  %21 = getelementptr inbounds nuw i8, ptr %0, i64 40
  store i64 %13, ptr %21, align 8, !tbaa !21
  %22 = getelementptr inbounds nuw i8, ptr %0, i64 48
  store i8 0, ptr %22, align 8, !tbaa !22
  %23 = getelementptr inbounds nuw i8, ptr %0, i64 52
  store i32 %1, ptr %23, align 4, !tbaa !23
  %24 = getelementptr inbounds nuw i8, ptr %0, i64 56
  store i8 0, ptr %24, align 8, !tbaa !24
  %25 = getelementptr inbounds nuw i8, ptr %0, i64 60
  store i32 %4, ptr %25, align 4, !tbaa !25
  store ptr getelementptr inbounds nuw inrange(-16, 168) (i8, ptr @_ZTVN2pb4cardE, i64 16), ptr %0, align 8, !tbaa !26
  %.not = icmp eq i32 %.0.i10, 0
  br i1 %.not, label %._crit_edge, label %.lr.ph

.lr.ph:                                           ; preds = %_ZNK6vectorIN3sat7literalELb0EjE4sizeEv.exit11
  %26 = getelementptr inbounds nuw i8, ptr %0, i64 64
  br label %27

._crit_edge:                                      ; preds = %27, %_ZNK6vectorIN3sat7literalELb0EjE4sizeEv.exit11
  ret void

27:                                               ; preds = %.lr.ph, %27
  %indvars.iv = phi i64 [ 0, %.lr.ph ], [ %indvars.iv.next, %27 ]
  %28 = getelementptr inbounds nuw %"class.sat::literal", ptr %6, i64 %indvars.iv
  %29 = getelementptr inbounds nuw [0 x %"class.sat::literal"], ptr %26, i64 0, i64 %indvars.iv
  %30 = load i32, ptr %28, align 4, !tbaa !9
  store i32 %30, ptr %29, align 4, !tbaa !9
  %indvars.iv.next = add nuw nsw i64 %indvars.iv, 1
  %exitcond.not = icmp eq i64 %indvars.iv.next, %11
  br i1 %exitcond.not, label %._crit_edge, label %27, !llvm.loop !28
}